target datalayout = "e-m:e-p270:32:32-p271:32:32-p272:64:64-i64:64-i128:128-f80:128-n8:16:32:64-S128"
target triple = "x86_64-pc-linux-gnu"

%"class.cmsys::SystemInformationImplementation" = type <{ i32, %"struct.cmsys::SystemInformationImplementation::CPUFeatures", %"struct.cmsys::SystemInformationImplementation::ID", float, i32, i32, [4 x i8], %"class.std::__cxx11::basic_string", i64, i64, i64, i64, i64, %"class.std::__cxx11::basic_string", %"class.std::__cxx11::basic_string", %"class.std::__cxx11::basic_string", %"class.std::__cxx11::basic_string", %"class.std::__cxx11::basic_string", i8, [7 x i8] }>
%"struct.cmsys::SystemInformationImplementation::CPUFeatures" = type { i8, i8, i8, i8, i8, i8, i8, i8, i8, i8, i8, i8, i8, i32, i32, i32, i32, %"struct.cmsys::SystemInformationImplementation::CPUExtendedFeatures" }
%"struct.cmsys::SystemInformationImplementation::CPUExtendedFeatures" = type { i8, i8, i8, i8, i8, i32, i32, %"struct.cmsys::SystemInformationImplementation::CPUPowerManagement" }
%"struct.cmsys::SystemInformationImplementation::CPUPowerManagement" = type { i8, i8, i8 }
%"struct.cmsys::SystemInformationImplementation::ID" = type { i32, i32, i32, i32, i32, i32, %"class.std::__cxx11::basic_string", %"class.std::__cxx11::basic_string", %"class.std::__cxx11::basic_string", %"class.std::__cxx11::basic_string" }
%"class.std::__cxx11::basic_string" = type { %"struct.std::__cxx11::basic_string<char>::_Alloc_hider", i64, %union.anon }
%"struct.std::__cxx11::basic_string<char>::_Alloc_hider" = type { ptr }
%union.anon = type { i64, [8 x i8] }

; Function Attrs: mustprogress nounwind uwtable
define dso_local noundef i32 @_ZNK5cmsys31SystemInformationImplementation22GetProcessorCacheXSizeEl(ptr noundef nonnull align 8 dereferenceable(457) %0, i64 noundef %1) #7 align 2 {
  %3 = alloca i32, align 4
  %4 = alloca ptr, align 8
  %5 = alloca i64, align 8
  store ptr %0, ptr %4, align 8, !tbaa !12
  store i64 %1, ptr %5, align 8, !tbaa !35
  %6 = load ptr, ptr %4, align 8
  %7 = load i64, ptr %5, align 8, !tbaa !35
  switch i64 %7, label %20 [
    i64 32768, label %8
    i64 65536, label %12
    i64 131072, label %16
  ]

8:                                                ; preds = %2
  %9 = getelementptr inbounds nuw %"class.cmsys::SystemInformationImplementation", ptr %6, i32 0, i32 1
  %10 = getelementptr inbounds nuw %"struct.cmsys::SystemInformationImplementation::CPUFeatures", ptr %9, i32 0, i32 14
  %11 = load i32, ptr %10, align 4, !tbaa !31
  store i32 %11, ptr %3, align 4
  br label %21

12:                                               ; preds = %2
  %13 = getelementptr inbounds nuw %"class.cmsys::SystemInformationImplementation", ptr %6, i32 0, i32 1
  %14 = getelementptr inbounds nuw %"struct.cmsys::SystemInformationImplementation::CPUFeatures", ptr %13, i32 0, i32 15
  %15 = load i32, ptr %14, align 4, !tbaa !36
  store i32 %15, ptr %3, align 4
  br label %21

16:                                               ; preds = %2
  %17 = getelementptr inbounds nuw %"class.cmsys::SystemInformationImplementation", ptr %6, i32 0, i32 1
  %18 = getelementptr inbounds nuw %"struct.cmsys::SystemInformationImplementation::CPUFeatures", ptr %17, i32 0, i32 16
  %19 = load i32, ptr %18, align 4, !tbaa !37
  store i32 %19, ptr %3, align 4
  br label %21

20:                                               ; preds = %2
  store i32 -1, ptr %3, align 4
  br label %21

21:                                               ; preds = %20, %16, %12, %8
  %22 = load i32, ptr %3, align 4
  ret i32 %22
}