; Function Attrs: mustprogress nofree norecurse nosync nounwind willreturn memory(argmem: read) uwtable
define dso_local noundef i32 @_ZNK5cmsys31SystemInformationImplementation22GetProcessorCacheXSizeEl(ptr noundef nonnull readonly align 8 captures(none) dereferenceable(457) %0, i64 noundef %1) local_unnamed_addr #8 align 2 {
  switch i64 %1, label %12 [
    i64 32768, label %3
    i64 65536, label %6
    i64 131072, label %9
  ]

3:                                                ; preds = %2
  %4 = getelementptr inbounds nuw i8, ptr %0, i64 24
  %5 = load i32, ptr %4, align 8, !tbaa !71
  br label %12

6:                                                ; preds = %2
  %7 = getelementptr inbounds nuw i8, ptr %0, i64 28
  %8 = load i32, ptr %7, align 4, !tbaa !76
  br label %12

9:                                                ; preds = %2
  %10 = getelementptr inbounds nuw i8, ptr %0, i64 32
  %11 = load i32, ptr %10, align 8, !tbaa !77
  br label %12

12:                                               ; preds = %2, %9, %6, %3
  %.0 = phi i32 [ %11, %9 ], [ %8, %6 ], [ %5, %3 ], [ -1, %2 ]
  ret i32 %.0
}